; ModuleID = '57/57.c'
source_filename = "57/57.c"
target datalayout = "e-m:e-p270:32:32-p271:32:32-p272:64:64-i64:64-f80:128-n8:16:32:64-S128"
target triple = "x86_64-pc-linux-gnu"

@.str = private unnamed_addr constant [3 x i8] c"%d\00", align 1
@.str.1 = private unnamed_addr constant [3 x i8] c"%s\00", align 1
@.str.2 = private unnamed_addr constant [3 x i8] c"%c\00", align 1
@.str.3 = private unnamed_addr constant [2 x i8] c"\0A\00", align 1

; Function Attrs: noinline nounwind uwtable
define dso_local void @main() #0 {
  %1 = alloca i32, align 4
  %2 = alloca i32, align 4
  %3 = alloca i32, align 4
  %4 = alloca i32, align 4
  %5 = alloca [20 x [100 x i8]], align 16
  %6 = call i32 (i8*, ...) @__isoc99_scanf(i8* getelementptr inbounds ([3 x i8], [3 x i8]* @.str, i64 0, i64 0), i32* %3)
  store i32 0, i32* %1, align 4
  br label %7

7:                                                ; preds = %17, %0
  %8 = load i32, i32* %1, align 4
  %9 = load i32, i32* %3, align 4
  %10 = icmp slt i32 %8, %9
  br i1 %10, label %11, label %20

11:                                               ; preds = %7
  %12 = load i32, i32* %1, align 4
  %13 = sext i32 %12 to i64
  %14 = getelementptr inbounds [20 x [100 x i8]], [20 x [100 x i8]]* %5, i64 0, i64 %13
  %15 = getelementptr inbounds [100 x i8], [100 x i8]* %14, i64 0, i64 0
  %16 = call i32 (i8*, ...) @__isoc99_scanf(i8* getelementptr inbounds ([3 x i8], [3 x i8]* @.str.1, i64 0, i64 0), i8* %15)
  br label %17

17:                                               ; preds = %11
  %18 = load i32, i32* %1, align 4
  %19 = add nsw i32 %18, 1
  store i32 %19, i32* %1, align 4
  br label %7

20:                                               ; preds = %7
  store i32 0, i32* %1, align 4
  br label %21

21:                                               ; preds = %107, %20
  %22 = load i32, i32* %1, align 4
  %23 = load i32, i32* %3, align 4
  %24 = icmp slt i32 %22, %23
  br i1 %24, label %25, label %110

25:                                               ; preds = %21
  %26 = load i32, i32* %1, align 4
  %27 = sext i32 %26 to i64
  %28 = getelementptr inbounds [20 x [100 x i8]], [20 x [100 x i8]]* %5, i64 0, i64 %27
  %29 = getelementptr inbounds [100 x i8], [100 x i8]* %28, i64 0, i64 0
  %30 = call i64 @strlen(i8* %29) #3
  %31 = trunc i64 %30 to i32
  store i32 %31, i32* %4, align 4
  %32 = load i32, i32* %1, align 4
  %33 = sext i32 %32 to i64
  %34 = getelementptr inbounds [20 x [100 x i8]], [20 x [100 x i8]]* %5, i64 0, i64 %33
  %35 = load i32, i32* %4, align 4
  %36 = sub nsw i32 %35, 1
  %37 = sext i32 %36 to i64
  %38 = getelementptr inbounds [100 x i8], [100 x i8]* %34, i64 0, i64 %37
  %39 = load i8, i8* %38, align 1
  %40 = sext i8 %39 to i32
  %41 = icmp eq i32 %40, 114
  br i1 %41, label %53, label %42

42:                                               ; preds = %25
  %43 = load i32, i32* %1, align 4
  %44 = sext i32 %43 to i64
  %45 = getelementptr inbounds [20 x [100 x i8]], [20 x [100 x i8]]* %5, i64 0, i64 %44
  %46 = load i32, i32* %4, align 4
  %47 = sub nsw i32 %46, 1
  %48 = sext i32 %47 to i64
  %49 = getelementptr inbounds [100 x i8], [100 x i8]* %45, i64 0, i64 %48
  %50 = load i8, i8* %49, align 1
  %51 = sext i8 %50 to i32
  %52 = icmp eq i32 %51, 121
  br i1 %52, label %53, label %73

53:                                               ; preds = %42, %25
  store i32 0, i32* %2, align 4
  br label %54

54:                                               ; preds = %69, %53
  %55 = load i32, i32* %2, align 4
  %56 = load i32, i32* %4, align 4
  %57 = sub nsw i32 %56, 2
  %58 = icmp slt i32 %55, %57
  br i1 %58, label %59, label %72

59:                                               ; preds = %54
  %60 = load i32, i32* %1, align 4
  %61 = sext i32 %60 to i64
  %62 = getelementptr inbounds [20 x [100 x i8]], [20 x [100 x i8]]* %5, i64 0, i64 %61
  %63 = load i32, i32* %2, align 4
  %64 = sext i32 %63 to i64
  %65 = getelementptr inbounds [100 x i8], [100 x i8]* %62, i64 0, i64 %64
  %66 = load i8, i8* %65, align 1
  %67 = sext i8 %66 to i32
  %68 = call i32 (i8*, ...) @printf(i8* getelementptr inbounds ([3 x i8], [3 x i8]* @.str.2, i64 0, i64 0), i32 %67)
  br label %69

69:                                               ; preds = %59
  %70 = load i32, i32* %2, align 4
  %71 = add nsw i32 %70, 1
  store i32 %71, i32* %2, align 4
  br label %54

72:                                               ; preds = %54
  br label %73

73:                                               ; preds = %72, %42
  %74 = call i32 (i8*, ...) @printf(i8* getelementptr inbounds ([2 x i8], [2 x i8]* @.str.3, i64 0, i64 0))
  %75 = load i32, i32* %1, align 4
  %76 = sext i32 %75 to i64
  %77 = getelementptr inbounds [20 x [100 x i8]], [20 x [100 x i8]]* %5, i64 0, i64 %76
  %78 = load i32, i32* %4, align 4
  %79 = sub nsw i32 %78, 1
  %80 = sext i32 %79 to i64
  %81 = getelementptr inbounds [100 x i8], [100 x i8]* %77, i64 0, i64 %80
  %82 = load i8, i8* %81, align 1
  %83 = sext i8 %82 to i32
  %84 = icmp eq i32 %83, 103
  br i1 %84, label %85, label %105

85:                                               ; preds = %73
  store i32 0, i32* %2, align 4
  br label %86

86:                                               ; preds = %101, %85
  %87 = load i32, i32* %2, align 4
  %88 = load i32, i32* %4, align 4
  %89 = sub nsw i32 %88, 3
  %90 = icmp slt i32 %87, %89
  br i1 %90, label %91, label %104

91:                                               ; preds = %86
  %92 = load i32, i32* %1, align 4
  %93 = sext i32 %92 to i64
  %94 = getelementptr inbounds [20 x [100 x i8]], [20 x [100 x i8]]* %5, i64 0, i64 %93
  %95 = load i32, i32* %2, align 4
  %96 = sext i32 %95 to i64
  %97 = getelementptr inbounds [100 x i8], [100 x i8]* %94, i64 0, i64 %96
  %98 = load i8, i8* %97, align 1
  %99 = sext i8 %98 to i32
  %100 = call i32 (i8*, ...) @printf(i8* getelementptr inbounds ([3 x i8], [3 x i8]* @.str.2, i64 0, i64 0), i32 %99)
  br label %101

101:                                              ; preds = %91
  %102 = load i32, i32* %2, align 4
  %103 = add nsw i32 %102, 1
  store i32 %103, i32* %2, align 4
  br label %86

104:                                              ; preds = %86
  br label %105

105:                                              ; preds = %104, %73
  %106 = call i32 (i8*, ...) @printf(i8* getelementptr inbounds ([2 x i8], [2 x i8]* @.str.3, i64 0, i64 0))
  br label %107

107:                                              ; preds = %105
  %108 = load i32, i32* %1, align 4
  %109 = add nsw i32 %108, 1
  store i32 %109, i32* %1, align 4
  br label %21

110:                                              ; preds = %21
  ret void
}

declare dso_local i32 @__isoc99_scanf(i8*, ...) #1

; Function Attrs: nounwind readonly
declare dso_local i64 @strlen(i8*) #2

declare dso_local i32 @printf(i8*, ...) #1


!llvm.module.flags = !{!0}
!llvm.ident = !{!1}

!0 = !{i32 1, !"wchar_size", i32 4}
!1 = !{!"clang version 10.0.0-4ubuntu1 "}
